target datalayout = "e-m:e-p270:32:32-p271:32:32-p272:64:64-i64:64-i128:128-f80:128-n8:16:32:64-S128"
target triple = "x86_64-pc-linux-gnu"

; Function Attrs: nounwind uwtable
define dso_local zeroext i1 @parsePGArray(ptr noundef %0, ptr noundef %1, ptr noundef %2) #0 {
  %4 = alloca i1, align 1
  %5 = alloca ptr, align 8
  %6 = alloca ptr, align 8
  %7 = alloca ptr, align 8
  %8 = alloca i32, align 4
  %9 = alloca ptr, align 8
  %10 = alloca ptr, align 8
  %11 = alloca i32, align 4
  %12 = alloca i32, align 4
  store ptr %0, ptr %5, align 8
  store ptr %1, ptr %6, align 8
  store ptr %2, ptr %7, align 8
  call void @llvm.lifetime.start.p0(i64 4, ptr %8) #8
  call void @llvm.lifetime.start.p0(i64 8, ptr %9) #8
  call void @llvm.lifetime.start.p0(i64 8, ptr %10) #8
  call void @llvm.lifetime.start.p0(i64 4, ptr %11) #8
  %13 = load ptr, ptr %6, align 8
  store ptr null, ptr %13, align 8
  %14 = load ptr, ptr %7, align 8
  store i32 0, ptr %14, align 4
  %15 = load ptr, ptr %5, align 8
  %16 = call i64 @strlen(ptr noundef %15) #9
  %17 = trunc i64 %16 to i32
  store i32 %17, ptr %8, align 4
  %18 = load i32, ptr %8, align 4
  %19 = icmp slt i32 %18, 2
  br i1 %19, label %35, label %20

20:                                               ; preds = %3
  %21 = load ptr, ptr %5, align 8
  %22 = getelementptr inbounds i8, ptr %21, i64 0
  %23 = load i8, ptr %22, align 1
  %24 = sext i8 %23 to i32
  %25 = icmp ne i32 %24, 123
  br i1 %25, label %35, label %26

26:                                               ; preds = %20
  %27 = load ptr, ptr %5, align 8
  %28 = load i32, ptr %8, align 4
  %29 = sub i32 %28, 1
  %30 = sext i32 %29 to i64
  %31 = getelementptr inbounds i8, ptr %27, i64 %30
  %32 = load i8, ptr %31, align 1
  %33 = sext i8 %32 to i32
  %34 = icmp ne i32 %33, 125
  br i1 %34, label %35, label %36

35:                                               ; preds = %26, %20, %3
  store i1 false, ptr %4, align 1
  store i32 1, ptr %12, align 4
  br label %160

36:                                               ; preds = %26
  %37 = load i32, ptr %8, align 4
  %38 = sext i32 %37 to i64
  %39 = mul i64 %38, 9
  %40 = call noalias ptr @malloc(i64 noundef %39) #11
  store ptr %40, ptr %9, align 8
  %41 = load ptr, ptr %9, align 8
  %42 = icmp eq ptr %41, null
  br i1 %42, label %43, label %44

43:                                               ; preds = %36
  store i1 false, ptr %4, align 1
  store i32 1, ptr %12, align 4
  br label %160

44:                                               ; preds = %36
  %45 = load ptr, ptr %9, align 8
  %46 = load ptr, ptr %6, align 8
  store ptr %45, ptr %46, align 8
  %47 = load ptr, ptr %9, align 8
  %48 = load i32, ptr %8, align 4
  %49 = sext i32 %48 to i64
  %50 = getelementptr inbounds ptr, ptr %47, i64 %49
  store ptr %50, ptr %10, align 8
  %51 = load ptr, ptr %5, align 8
  %52 = getelementptr inbounds nuw i8, ptr %51, i32 1
  store ptr %52, ptr %5, align 8
  store i32 0, ptr %11, align 4
  br label %53

53:                                               ; preds = %147, %44
  %54 = load ptr, ptr %5, align 8
  %55 = load i8, ptr %54, align 1
  %56 = sext i8 %55 to i32
  %57 = icmp ne i32 %56, 125
  br i1 %57, label %58, label %150

58:                                               ; preds = %53
  %59 = load ptr, ptr %5, align 8
  %60 = load i8, ptr %59, align 1
  %61 = sext i8 %60 to i32
  %62 = icmp eq i32 %61, 0
  br i1 %62, label %63, label %64

63:                                               ; preds = %58
  store i1 false, ptr %4, align 1
  store i32 1, ptr %12, align 4
  br label %160

64:                                               ; preds = %58
  %65 = load ptr, ptr %10, align 8
  %66 = load ptr, ptr %9, align 8
  %67 = load i32, ptr %11, align 4
  %68 = sext i32 %67 to i64
  %69 = getelementptr inbounds ptr, ptr %66, i64 %68
  store ptr %65, ptr %69, align 8
  br label %70

70:                                               ; preds = %136, %64
  %71 = load ptr, ptr %5, align 8
  %72 = load i8, ptr %71, align 1
  %73 = sext i8 %72 to i32
  %74 = icmp ne i32 %73, 125
  br i1 %74, label %75, label %80

75:                                               ; preds = %70
  %76 = load ptr, ptr %5, align 8
  %77 = load i8, ptr %76, align 1
  %78 = sext i8 %77 to i32
  %79 = icmp ne i32 %78, 44
  br label %80

80:                                               ; preds = %75, %70
  %81 = phi i1 [ false, %70 ], [ %79, %75 ]
  br i1 %81, label %82, label %137

82:                                               ; preds = %80
  %83 = load ptr, ptr %5, align 8
  %84 = load i8, ptr %83, align 1
  %85 = sext i8 %84 to i32
  %86 = icmp eq i32 %85, 0
  br i1 %86, label %87, label %88

87:                                               ; preds = %82
  store i1 false, ptr %4, align 1
  store i32 1, ptr %12, align 4
  br label %160

88:                                               ; preds = %82
  %89 = load ptr, ptr %5, align 8
  %90 = load i8, ptr %89, align 1
  %91 = sext i8 %90 to i32
  %92 = icmp ne i32 %91, 34
  br i1 %92, label %93, label %99

93:                                               ; preds = %88
  %94 = load ptr, ptr %5, align 8
  %95 = getelementptr inbounds nuw i8, ptr %94, i32 1
  store ptr %95, ptr %5, align 8
  %96 = load i8, ptr %94, align 1
  %97 = load ptr, ptr %10, align 8
  %98 = getelementptr inbounds nuw i8, ptr %97, i32 1
  store ptr %98, ptr %10, align 8
  store i8 %96, ptr %97, align 1
  br label %136

99:                                               ; preds = %88
  %100 = load ptr, ptr %5, align 8
  %101 = getelementptr inbounds nuw i8, ptr %100, i32 1
  store ptr %101, ptr %5, align 8
  br label %102

102:                                              ; preds = %127, %99
  %103 = load ptr, ptr %5, align 8
  %104 = load i8, ptr %103, align 1
  %105 = sext i8 %104 to i32
  %106 = icmp ne i32 %105, 34
  br i1 %106, label %107, label %133

107:                                              ; preds = %102
  %108 = load ptr, ptr %5, align 8
  %109 = load i8, ptr %108, align 1
  %110 = sext i8 %109 to i32
  %111 = icmp eq i32 %110, 0
  br i1 %111, label %112, label %113

112:                                              ; preds = %107
  store i1 false, ptr %4, align 1
  store i32 1, ptr %12, align 4
  br label %160

113:                                              ; preds = %107
  %114 = load ptr, ptr %5, align 8
  %115 = load i8, ptr %114, align 1
  %116 = sext i8 %115 to i32
  %117 = icmp eq i32 %116, 92
  br i1 %117, label %118, label %127

118:                                              ; preds = %113
  %119 = load ptr, ptr %5, align 8
  %120 = getelementptr inbounds nuw i8, ptr %119, i32 1
  store ptr %120, ptr %5, align 8
  %121 = load ptr, ptr %5, align 8
  %122 = load i8, ptr %121, align 1
  %123 = sext i8 %122 to i32
  %124 = icmp eq i32 %123, 0
  br i1 %124, label %125, label %126

125:                                              ; preds = %118
  store i1 false, ptr %4, align 1
  store i32 1, ptr %12, align 4
  br label %160

126:                                              ; preds = %118
  br label %127

127:                                              ; preds = %126, %113
  %128 = load ptr, ptr %5, align 8
  %129 = getelementptr inbounds nuw i8, ptr %128, i32 1
  store ptr %129, ptr %5, align 8
  %130 = load i8, ptr %128, align 1
  %131 = load ptr, ptr %10, align 8
  %132 = getelementptr inbounds nuw i8, ptr %131, i32 1
  store ptr %132, ptr %10, align 8
  store i8 %130, ptr %131, align 1
  br label %102, !llvm.loop !18

133:                                              ; preds = %102
  %134 = load ptr, ptr %5, align 8
  %135 = getelementptr inbounds nuw i8, ptr %134, i32 1
  store ptr %135, ptr %5, align 8
  br label %136

136:                                              ; preds = %133, %93
  br label %70, !llvm.loop !19

137:                                              ; preds = %80
  %138 = load ptr, ptr %10, align 8
  %139 = getelementptr inbounds nuw i8, ptr %138, i32 1
  store ptr %139, ptr %10, align 8
  store i8 0, ptr %138, align 1
  %140 = load ptr, ptr %5, align 8
  %141 = load i8, ptr %140, align 1
  %142 = sext i8 %141 to i32
  %143 = icmp eq i32 %142, 44
  br i1 %143, label %144, label %147

144:                                              ; preds = %137
  %145 = load ptr, ptr %5, align 8
  %146 = getelementptr inbounds nuw i8, ptr %145, i32 1
  store ptr %146, ptr %5, align 8
  br label %147

147:                                              ; preds = %144, %137
  %148 = load i32, ptr %11, align 4
  %149 = add i32 %148, 1
  store i32 %149, ptr %11, align 4
  br label %53, !llvm.loop !20

150:                                              ; preds = %53
  %151 = load ptr, ptr %5, align 8
  %152 = getelementptr inbounds i8, ptr %151, i64 1
  %153 = load i8, ptr %152, align 1
  %154 = sext i8 %153 to i32
  %155 = icmp ne i32 %154, 0
  br i1 %155, label %156, label %157

156:                                              ; preds = %150
  store i1 false, ptr %4, align 1
  store i32 1, ptr %12, align 4
  br label %160

157:                                              ; preds = %150
  %158 = load i32, ptr %11, align 4
  %159 = load ptr, ptr %7, align 8
  store i32 %158, ptr %159, align 4
  store i1 true, ptr %4, align 1
  store i32 1, ptr %12, align 4
  br label %160

160:                                              ; preds = %157, %156, %125, %112, %87, %63, %43, %35
  call void @llvm.lifetime.end.p0(i64 4, ptr %11) #8
  call void @llvm.lifetime.end.p0(i64 8, ptr %10) #8
  call void @llvm.lifetime.end.p0(i64 8, ptr %9) #8
  call void @llvm.lifetime.end.p0(i64 4, ptr %8) #8
  %161 = load i1, ptr %4, align 1
  ret i1 %161
}