; Function Attrs: nofree nounwind memory(write, argmem: readwrite, inaccessiblemem: readwrite) uwtable
define dso_local noundef zeroext i1 @parsePGArray(ptr noundef readonly captures(none) %0, ptr noundef writeonly captures(none) initializes((0, 8)) %1, ptr noundef writeonly captures(none) initializes((0, 4)) %2) local_unnamed_addr #6 {
  store ptr null, ptr %1, align 8
  store i32 0, ptr %2, align 4
  %4 = tail call i64 @strlen(ptr noundef nonnull dereferenceable(1) %0) #12
  %5 = trunc i64 %4 to i32
  %6 = icmp slt i32 %5, 2
  br i1 %6, label %.loopexit, label %7

7:                                                ; preds = %3
  %8 = load i8, ptr %0, align 1
  %.not = icmp eq i8 %8, 123
  br i1 %.not, label %9, label %.loopexit

9:                                                ; preds = %7
  %10 = add i64 %4, 4294967295
  %11 = and i64 %10, 4294967295
  %12 = getelementptr inbounds nuw i8, ptr %0, i64 %11
  %13 = load i8, ptr %12, align 1
  %.not52 = icmp eq i8 %13, 125
  br i1 %.not52, label %14, label %.loopexit

14:                                               ; preds = %9
  %15 = and i64 %4, 2147483647
  %16 = mul nuw nsw i64 %15, 9
  %17 = tail call noalias ptr @malloc(i64 noundef %16) #14
  %18 = icmp eq ptr %17, null
  br i1 %18, label %.loopexit, label %19

19:                                               ; preds = %14
  store ptr %17, ptr %1, align 8
  %20 = getelementptr inbounds nuw ptr, ptr %17, i64 %15
  %21 = getelementptr inbounds nuw i8, ptr %0, i64 1
  br label %22

22:                                               ; preds = %.critedge, %19
  %.043 = phi ptr [ %21, %19 ], [ %spec.select, %.critedge ]
  %.041 = phi ptr [ %20, %19 ], [ %42, %.critedge ]
  %.0 = phi i32 [ 0, %19 ], [ %45, %.critedge ]
  %23 = load i8, ptr %.043, align 1
  switch i8 %23, label %24 [
    i8 125, label %46
    i8 0, label %.loopexit
  ]

24:                                               ; preds = %22
  %25 = sext i32 %.0 to i64
  %26 = getelementptr inbounds ptr, ptr %17, i64 %25
  store ptr %.041, ptr %26, align 8
  br label %27

27:                                               ; preds = %.backedge, %24
  %.144 = phi ptr [ %.043, %24 ], [ %.144.be, %.backedge ]
  %.1 = phi ptr [ %.041, %24 ], [ %.1.be, %.backedge ]
  %28 = load i8, ptr %.144, align 1
  switch i8 %28, label %29 [
    i8 125, label %.critedge
    i8 44, label %.critedge
    i8 0, label %.loopexit
    i8 34, label %.preheader
  ]

29:                                               ; preds = %27
  %30 = getelementptr inbounds nuw i8, ptr %.144, i64 1
  %31 = getelementptr inbounds nuw i8, ptr %.1, i64 1
  store i8 %28, ptr %.1, align 1
  br label %.backedge

.preheader:                                       ; preds = %27, %37
  %.144.pn = phi ptr [ %.4, %37 ], [ %.144, %27 ]
  %.3 = phi ptr [ %39, %37 ], [ %.1, %27 ]
  %.346 = getelementptr inbounds nuw i8, ptr %.144.pn, i64 1
  %32 = load i8, ptr %.346, align 1
  switch i8 %32, label %37 [
    i8 34, label %40
    i8 0, label %.loopexit
    i8 92, label %33
  ]

33:                                               ; preds = %.preheader
  %34 = getelementptr inbounds nuw i8, ptr %.144.pn, i64 2
  %35 = load i8, ptr %34, align 1
  %36 = icmp eq i8 %35, 0
  br i1 %36, label %.loopexit, label %37

37:                                               ; preds = %.preheader, %33
  %38 = phi i8 [ %35, %33 ], [ %32, %.preheader ]
  %.4 = phi ptr [ %34, %33 ], [ %.346, %.preheader ]
  %39 = getelementptr inbounds nuw i8, ptr %.3, i64 1
  store i8 %38, ptr %.3, align 1
  br label %.preheader, !llvm.loop !16

40:                                               ; preds = %.preheader
  %41 = getelementptr inbounds nuw i8, ptr %.144.pn, i64 2
  br label %.backedge

.backedge:                                        ; preds = %40, %29
  %.144.be = phi ptr [ %30, %29 ], [ %41, %40 ]
  %.1.be = phi ptr [ %31, %29 ], [ %.3, %40 ]
  br label %27, !llvm.loop !17

.critedge:                                        ; preds = %27, %27
  %42 = getelementptr inbounds nuw i8, ptr %.1, i64 1
  store i8 0, ptr %.1, align 1
  %43 = load i8, ptr %.144, align 1
  %44 = icmp eq i8 %43, 44
  %spec.select.idx = zext i1 %44 to i64
  %spec.select = getelementptr inbounds nuw i8, ptr %.144, i64 %spec.select.idx
  %45 = add i32 %.0, 1
  br label %22, !llvm.loop !18

46:                                               ; preds = %22
  %47 = getelementptr inbounds nuw i8, ptr %.043, i64 1
  %48 = load i8, ptr %47, align 1
  %.not54 = icmp eq i8 %48, 0
  br i1 %.not54, label %49, label %.loopexit

49:                                               ; preds = %46
  store i32 %.0, ptr %2, align 4
  br label %.loopexit

.loopexit:                                        ; preds = %22, %27, %33, %.preheader, %46, %14, %3, %7, %9, %49
  %.042 = phi i1 [ true, %49 ], [ false, %9 ], [ false, %7 ], [ false, %3 ], [ false, %14 ], [ false, %46 ], [ false, %.preheader ], [ false, %33 ], [ false, %27 ], [ false, %22 ]
  ret i1 %.042
}